; Function Attrs: null_pointer_is_valid sspstrong uwtable
define ptr @epan_get_modified_block(ptr noundef readonly captures(none) %0, ptr noundef %1) local_unnamed_addr #6 {
  %3 = getelementptr inbounds nuw i8, ptr %0, i64 32
  %4 = load ptr, ptr %3, align 8
  %.not = icmp eq ptr %4, null
  br i1 %.not, label %8, label %5

5:                                                ; preds = %2
  %6 = load ptr, ptr %0, align 8
  %7 = tail call ptr %4(ptr noundef %6, ptr noundef %1)
  br label %8

8:                                                ; preds = %2, %5
  %.0 = phi ptr [ %7, %5 ], [ null, %2 ]
  ret ptr %.0
}